; Function Attrs: mustprogress nounwind uwtable
define hidden void @_ZN12PeriodicTask6enrollEv(ptr noundef nonnull align 8 dereferenceable(16) %0) local_unnamed_addr #0 align 2 {
  %2 = load ptr, ptr @PeriodicTask_lock, align 8
  %3 = tail call noundef zeroext i1 @_ZNK5Mutex13owned_by_selfEv(ptr noundef nonnull align 8 dereferenceable(104) %2) #8
  br i1 %3, label %_ZN22ConditionalMutexLockerC2EP5MutexbNS0_18SafepointCheckFlagE.exit, label %4

4:                                                ; preds = %1
  tail call void @_ZN5Mutex4lockEv(ptr noundef nonnull align 8 dereferenceable(104) %2) #8
  br label %_ZN22ConditionalMutexLockerC2EP5MutexbNS0_18SafepointCheckFlagE.exit

_ZN22ConditionalMutexLockerC2EP5MutexbNS0_18SafepointCheckFlagE.exit: ; preds = %1, %4
  %5 = load i32, ptr @_ZN12PeriodicTask10_num_tasksE, align 4
  %6 = icmp eq i32 %5, 10
  br i1 %6, label %7, label %9

7:                                                ; preds = %_ZN22ConditionalMutexLockerC2EP5MutexbNS0_18SafepointCheckFlagE.exit
  %8 = load ptr, ptr @g_assert_poison, align 8
  store i8 88, ptr %8, align 1
  tail call void (i32, ptr, i32, ptr, ...) @_Z12report_fatal11VMErrorTypePKciS1_z(i32 noundef -536870912, ptr noundef nonnull @.str, i32 noundef 93, ptr noundef nonnull @.str.4) #9
  unreachable

9:                                                ; preds = %_ZN22ConditionalMutexLockerC2EP5MutexbNS0_18SafepointCheckFlagE.exit
  %10 = add nsw i32 %5, 1
  store i32 %10, ptr @_ZN12PeriodicTask10_num_tasksE, align 4
  %11 = sext i32 %5 to i64
  %12 = getelementptr inbounds [10 x ptr], ptr @_ZN12PeriodicTask6_tasksE, i64 0, i64 %11
  store ptr %0, ptr %12, align 8
  %13 = load ptr, ptr @_ZN13WatcherThread15_watcher_threadE, align 8
  %.not = icmp eq ptr %13, null
  br i1 %.not, label %15, label %14

14:                                               ; preds = %9
  tail call void @_ZN13WatcherThread6unparkEv(ptr noundef nonnull align 8 dereferenceable(896) %13) #8
  br label %15

15:                                               ; preds = %14, %9
  br i1 %3, label %_ZN22ConditionalMutexLockerD2Ev.exit, label %16

16:                                               ; preds = %15
  tail call void @_ZN5Mutex6unlockEv(ptr noundef nonnull align 8 dereferenceable(104) %2) #8
  br label %_ZN22ConditionalMutexLockerD2Ev.exit

_ZN22ConditionalMutexLockerD2Ev.exit:             ; preds = %15, %16
  ret void
}